target datalayout = "e-m:e-p270:32:32-p271:32:32-p272:64:64-i64:64-i128:128-f80:128-n8:16:32:64-S128"
target triple = "x86_64-pc-linux-gnu"

@.str.2 = private unnamed_addr constant [5 x i8] c"%s: \00", align 1
@.str.3 = private unnamed_addr constant [2 x i8] c"\09\00", align 1
@.str.4 = private unnamed_addr constant [7 x i8] c"%10.5f\00", align 1
@.str.5 = private unnamed_addr constant [2 x i8] c"\0A\00", align 1

; Function Attrs: mustprogress nounwind uwtable
define void @_Z14gmx_mat4_printP8_IO_FILEPKcPA4_f(ptr noundef %0, ptr noundef %1, ptr noundef %2) #0 {
  %4 = alloca ptr, align 8
  %5 = alloca ptr, align 8
  %6 = alloca ptr, align 8
  %7 = alloca i32, align 4
  %8 = alloca i32, align 4
  store ptr %0, ptr %4, align 8
  store ptr %1, ptr %5, align 8
  store ptr %2, ptr %6, align 8
  %9 = load ptr, ptr %4, align 8
  %10 = icmp ne ptr %9, null
  br i1 %10, label %11, label %46

11:                                               ; preds = %3
  %12 = load ptr, ptr %4, align 8
  %13 = load ptr, ptr %5, align 8
  %14 = call i32 (ptr, ptr, ...) @fprintf(ptr noundef %12, ptr noundef @.str.2, ptr noundef %13) #9
  store i32 0, ptr %7, align 4
  br label %15

15:                                               ; preds = %42, %11
  %16 = load i32, ptr %7, align 4
  %17 = icmp slt i32 %16, 4
  br i1 %17, label %18, label %45

18:                                               ; preds = %15
  %19 = load ptr, ptr %4, align 8
  %20 = call i32 (ptr, ptr, ...) @fprintf(ptr noundef %19, ptr noundef @.str.3) #9
  store i32 0, ptr %8, align 4
  br label %21

21:                                               ; preds = %36, %18
  %22 = load i32, ptr %8, align 4
  %23 = icmp slt i32 %22, 4
  br i1 %23, label %24, label %39

24:                                               ; preds = %21
  %25 = load ptr, ptr %4, align 8
  %26 = load ptr, ptr %6, align 8
  %27 = load i32, ptr %7, align 4
  %28 = sext i32 %27 to i64
  %29 = getelementptr inbounds [4 x float], ptr %26, i64 %28
  %30 = load i32, ptr %8, align 4
  %31 = sext i32 %30 to i64
  %32 = getelementptr inbounds [4 x float], ptr %29, i64 0, i64 %31
  %33 = load float, ptr %32, align 4
  %34 = fpext float %33 to double
  %35 = call i32 (ptr, ptr, ...) @fprintf(ptr noundef %25, ptr noundef @.str.4, double noundef %34) #9
  br label %36

36:                                               ; preds = %24
  %37 = load i32, ptr %8, align 4
  %38 = add nsw i32 %37, 1
  store i32 %38, ptr %8, align 4
  br label %21, !llvm.loop !14

39:                                               ; preds = %21
  %40 = load ptr, ptr %4, align 8
  %41 = call i32 (ptr, ptr, ...) @fprintf(ptr noundef %40, ptr noundef @.str.5) #9
  br label %42

42:                                               ; preds = %39
  %43 = load i32, ptr %7, align 4
  %44 = add nsw i32 %43, 1
  store i32 %44, ptr %7, align 4
  br label %15, !llvm.loop !15

45:                                               ; preds = %15
  br label %46

46:                                               ; preds = %45, %3
  ret void
}