; Function Attrs: mustprogress nofree nounwind uwtable
define void @_Z14gmx_mat4_printP8_IO_FILEPKcPA4_f(ptr noundef %0, ptr noundef %1, ptr nocapture noundef readonly %2) local_unnamed_addr #10 {
  %.not = icmp eq ptr %0, null
  br i1 %.not, label %.loopexit, label %4

4:                                                ; preds = %3
  %5 = tail call i32 (ptr, ptr, ...) @fprintf(ptr noundef nonnull %0, ptr noundef nonnull @.str.2, ptr noundef %1) #14
  br label %6

6:                                                ; preds = %4, %12
  %indvars.iv18 = phi i64 [ 0, %4 ], [ %indvars.iv.next19, %12 ]
  %fputc = tail call i32 @fputc(i32 9, ptr nonnull %0)
  br label %7

7:                                                ; preds = %6, %7
  %indvars.iv = phi i64 [ 0, %6 ], [ %indvars.iv.next, %7 ]
  %8 = getelementptr inbounds [4 x float], ptr %2, i64 %indvars.iv18, i64 %indvars.iv
  %9 = load float, ptr %8, align 4
  %10 = fpext float %9 to double
  %11 = tail call i32 (ptr, ptr, ...) @fprintf(ptr noundef nonnull %0, ptr noundef nonnull @.str.4, double noundef %10) #14
  %indvars.iv.next = add nuw nsw i64 %indvars.iv, 1
  %exitcond.not = icmp eq i64 %indvars.iv.next, 4
  br i1 %exitcond.not, label %12, label %7, !llvm.loop !14

12:                                               ; preds = %7
  %fputc14 = tail call i32 @fputc(i32 10, ptr nonnull %0)
  %indvars.iv.next19 = add nuw nsw i64 %indvars.iv18, 1
  %exitcond21.not = icmp eq i64 %indvars.iv.next19, 4
  br i1 %exitcond21.not, label %.loopexit, label %6, !llvm.loop !15

.loopexit:                                        ; preds = %12, %3
  ret void
}